target datalayout = "e-m:e-p270:32:32-p271:32:32-p272:64:64-i64:64-i128:128-f80:128-n8:16:32:64-S128"
target triple = "x86_64-pc-linux-gnu"

%struct.expert_field = type { i32, i32 }
%struct.cip_connection_triad = type { i16, i16, i32 }
%struct._proto_node = type { ptr, ptr, ptr, ptr, ptr, ptr, ptr }
%struct.field_info = type { ptr, i32, i32, i32, i32, i32, i32, ptr, ptr, ptr, i32, i32 }

@hf_cipsafety_data = internal global i32 0, align 4
@hf_cipsafety_crc_s3 = internal global i32 0, align 4
@hf_cipsafety_crc_s3_status = internal global i32 0, align 4
@hf_cipsafety_complement_crc_s3 = internal global i32 0, align 4
@hf_cipsafety_complement_crc_s3_status = internal global i32 0, align 4
@hf_cipsafety_complement_data = internal global i32 0, align 4
@hf_cip_safety_message_encoding = internal global i32 0, align 4
@ei_cipsafety_not_complement_data = internal global %struct.expert_field zeroinitializer, align 4
@ei_cipsafety_crc_s3 = internal global %struct.expert_field zeroinitializer, align 4
@ei_cipsafety_complement_crc_s3 = internal global %struct.expert_field zeroinitializer, align 4

; Function Attrs: alwaysinline nounwind
define internal ptr @memcpy.inline(ptr noalias %0, ptr noalias %1, i64 %2) #8 {
  %4 = alloca ptr, align 8
  %5 = alloca ptr, align 8
  %6 = alloca i64, align 8
  store ptr %0, ptr %4, align 8
  store ptr %1, ptr %5, align 8
  store i64 %2, ptr %6, align 8
  %7 = load ptr, ptr %4, align 8
  %8 = load ptr, ptr %5, align 8
  %9 = load i64, ptr %6, align 8
  %10 = load ptr, ptr %4, align 8
  %11 = call i64 @llvm.objectsize.i64.p0(ptr %10, i1 false, i1 true, i1 true)
  %12 = call ptr @__memcpy_chk(ptr noundef %7, ptr noundef %8, i64 noundef %9, i64 noundef %11) #11
  ret ptr %12
}

; Function Attrs: null_pointer_is_valid sspstrong uwtable
define internal zeroext i1 @verify_compliment_data(ptr noundef %0, i32 noundef %1, i32 noundef %2, i32 noundef %3) #0 {
  %5 = alloca i1, align 1
  %6 = alloca ptr, align 8
  %7 = alloca i32, align 4
  %8 = alloca i32, align 4
  %9 = alloca i32, align 4
  %10 = alloca ptr, align 8
  %11 = alloca ptr, align 8
  %12 = alloca i32, align 4
  %13 = alloca i32, align 4
  store ptr %0, ptr %6, align 8
  store i32 %1, ptr %7, align 4
  store i32 %2, ptr %8, align 4
  store i32 %3, ptr %9, align 4
  call void @llvm.lifetime.start.p0(i64 8, ptr %10) #11
  %14 = load ptr, ptr %6, align 8
  %15 = load i32, ptr %7, align 4
  %16 = load i32, ptr %9, align 4
  %17 = call ptr @tvb_get_ptr(ptr noundef %14, i32 noundef %15, i32 noundef %16)
  store ptr %17, ptr %10, align 8
  call void @llvm.lifetime.start.p0(i64 8, ptr %11) #11
  %18 = load ptr, ptr %6, align 8
  %19 = load i32, ptr %8, align 4
  %20 = load i32, ptr %9, align 4
  %21 = call ptr @tvb_get_ptr(ptr noundef %18, i32 noundef %19, i32 noundef %20)
  store ptr %21, ptr %11, align 8
  call void @llvm.lifetime.start.p0(i64 4, ptr %12) #11
  store i32 0, ptr %12, align 4
  br label %22

22:                                               ; preds = %43, %4
  %23 = load i32, ptr %12, align 4
  %24 = load i32, ptr %9, align 4
  %25 = icmp slt i32 %23, %24
  br i1 %25, label %26, label %46

26:                                               ; preds = %22
  %27 = load ptr, ptr %10, align 8
  %28 = load i32, ptr %12, align 4
  %29 = sext i32 %28 to i64
  %30 = getelementptr i8, ptr %27, i64 %29
  %31 = load i8, ptr %30, align 1
  %32 = zext i8 %31 to i32
  %33 = load ptr, ptr %11, align 8
  %34 = load i32, ptr %12, align 4
  %35 = sext i32 %34 to i64
  %36 = getelementptr i8, ptr %33, i64 %35
  %37 = load i8, ptr %36, align 1
  %38 = zext i8 %37 to i32
  %39 = xor i32 %32, %38
  %40 = icmp ne i32 %39, 255
  br i1 %40, label %41, label %42

41:                                               ; preds = %26
  store i1 false, ptr %5, align 1
  store i32 1, ptr %13, align 4
  br label %47

42:                                               ; preds = %26
  br label %43

43:                                               ; preds = %42
  %44 = load i32, ptr %12, align 4
  %45 = add i32 %44, 1
  store i32 %45, ptr %12, align 4
  br label %22, !llvm.loop !16

46:                                               ; preds = %22
  store i1 true, ptr %5, align 1
  store i32 1, ptr %13, align 4
  br label %47

47:                                               ; preds = %46, %41
  call void @llvm.lifetime.end.p0(i64 4, ptr %12) #11
  call void @llvm.lifetime.end.p0(i64 8, ptr %11) #11
  call void @llvm.lifetime.end.p0(i64 8, ptr %10) #11
  %48 = load i1, ptr %5, align 1
  ret i1 %48
}

; Function Attrs: null_pointer_is_valid sspstrong uwtable
define internal zeroext i16 @compute_crc_s3_base_data(i16 noundef zeroext %0, i8 noundef zeroext %1, ptr noundef %2, i32 noundef %3) #0 {
  %5 = alloca i16, align 2
  %6 = alloca i8, align 1
  %7 = alloca ptr, align 8
  %8 = alloca i32, align 4
  %9 = alloca i16, align 2
  store i16 %0, ptr %5, align 2
  store i8 %1, ptr %6, align 1
  store ptr %2, ptr %7, align 8
  store i32 %3, ptr %8, align 4
  call void @llvm.lifetime.start.p0(i64 2, ptr %9) #11
  %10 = load i16, ptr %5, align 2
  %11 = call zeroext i16 @crc16_0x080F_seed(ptr noundef %6, i32 noundef 1, i16 noundef zeroext %10)
  store i16 %11, ptr %9, align 2
  %12 = load ptr, ptr %7, align 8
  %13 = load i32, ptr %8, align 4
  %14 = load i16, ptr %9, align 2
  %15 = call zeroext i16 @crc16_0x080F_seed(ptr noundef %12, i32 noundef %13, i16 noundef zeroext %14)
  call void @llvm.lifetime.end.p0(i64 2, ptr %9) #11
  ret i16 %15
}

; Function Attrs: null_pointer_is_valid sspstrong uwtable
define internal zeroext i16 @compute_crc_s3_pid(ptr noundef %0) #0 {
  %2 = alloca ptr, align 8
  %3 = alloca [8 x i8], align 1
  store ptr %0, ptr %2, align 8
  call void @llvm.lifetime.start.p0(i64 8, ptr %3) #11
  %4 = getelementptr inbounds [8 x i8], ptr %3, i64 0, i64 0
  %5 = load ptr, ptr %2, align 8
  %6 = getelementptr inbounds nuw %struct.cip_connection_triad, ptr %5, i32 0, i32 1
  %7 = call ptr @memcpy.inline(ptr noundef %4, ptr noundef %6, i64 noundef 2) #11
  %8 = getelementptr [8 x i8], ptr %3, i64 0, i64 2
  %9 = load ptr, ptr %2, align 8
  %10 = getelementptr inbounds nuw %struct.cip_connection_triad, ptr %9, i32 0, i32 2
  %11 = call ptr @memcpy.inline(ptr noundef %8, ptr noundef %10, i64 noundef 4) #11
  %12 = getelementptr [8 x i8], ptr %3, i64 0, i64 6
  %13 = load ptr, ptr %2, align 8
  %14 = getelementptr inbounds nuw %struct.cip_connection_triad, ptr %13, i32 0, i32 0
  %15 = call ptr @memcpy.inline(ptr noundef %12, ptr noundef %14, i64 noundef 2) #11
  %16 = getelementptr inbounds [8 x i8], ptr %3, i64 0, i64 0
  %17 = call zeroext i16 @crc16_0x080F_seed(ptr noundef %16, i32 noundef 8, i16 noundef zeroext 0)
  call void @llvm.lifetime.end.p0(i64 8, ptr %3) #11
  ret i16 %17
}

; Function Attrs: inlinehint nounwind null_pointer_is_valid sspstrong uwtable
define internal void @proto_item_set_generated(ptr noundef %0) #5 {
  %2 = alloca ptr, align 8
  store ptr %0, ptr %2, align 8
  %3 = load ptr, ptr %2, align 8
  %4 = icmp ne ptr %3, null
  br i1 %4, label %5, label %24

5:                                                ; preds = %1
  br label %6

6:                                                ; preds = %5
  %7 = load ptr, ptr %2, align 8
  %8 = getelementptr inbounds nuw %struct._proto_node, ptr %7, i32 0, i32 5
  %9 = load ptr, ptr %8, align 8
  %10 = icmp ne ptr %9, null
  br i1 %10, label %11, label %22

11:                                               ; preds = %6
  %12 = load ptr, ptr %2, align 8
  %13 = getelementptr inbounds nuw %struct._proto_node, ptr %12, i32 0, i32 5
  %14 = load ptr, ptr %13, align 8
  %15 = getelementptr inbounds nuw %struct.field_info, ptr %14, i32 0, i32 6
  %16 = load i32, ptr %15, align 4
  %17 = or i32 %16, 2
  %18 = load ptr, ptr %2, align 8
  %19 = getelementptr inbounds nuw %struct._proto_node, ptr %18, i32 0, i32 5
  %20 = load ptr, ptr %19, align 8
  %21 = getelementptr inbounds nuw %struct.field_info, ptr %20, i32 0, i32 6
  store i32 %17, ptr %21, align 4
  br label %22

22:                                               ; preds = %11, %6
  br label %23

23:                                               ; preds = %22
  br label %24

24:                                               ; preds = %23, %1
  ret void
}

; Function Attrs: null_pointer_is_valid sspstrong uwtable
define internal void @dissect_base_format_3_to_250_byte_data(ptr noundef %0, ptr noundef %1, ptr noundef %2, i32 noundef %3, i1 noundef zeroext %4, ptr noundef %5) #0 {
  %7 = alloca ptr, align 8
  %8 = alloca ptr, align 8
  %9 = alloca ptr, align 8
  %10 = alloca i32, align 4
  %11 = alloca i8, align 1
  %12 = alloca ptr, align 8
  %13 = alloca ptr, align 8
  %14 = alloca i32, align 4
  %15 = alloca i16, align 2
  %16 = alloca ptr, align 8
  %17 = alloca i16, align 2
  store ptr %0, ptr %7, align 8
  store ptr %1, ptr %8, align 8
  store ptr %2, ptr %9, align 8
  store i32 %3, ptr %10, align 4
  %18 = zext i1 %4 to i8
  store i8 %18, ptr %11, align 1
  store ptr %5, ptr %12, align 8
  call void @llvm.lifetime.start.p0(i64 8, ptr %13) #11
  %19 = load ptr, ptr %8, align 8
  %20 = load i32, ptr @hf_cip_safety_message_encoding, align 4
  %21 = load ptr, ptr %9, align 8
  %22 = call ptr @proto_tree_add_uint(ptr noundef %19, i32 noundef %20, ptr noundef %21, i32 noundef 0, i32 noundef 0, i32 noundef 2)
  store ptr %22, ptr %13, align 8
  %23 = load ptr, ptr %13, align 8
  call void @proto_item_set_generated(ptr noundef %23)
  %24 = load ptr, ptr %8, align 8
  %25 = load i32, ptr @hf_cipsafety_data, align 4
  %26 = load ptr, ptr %9, align 8
  %27 = load i32, ptr %10, align 4
  %28 = call ptr @proto_tree_add_item(ptr noundef %24, i32 noundef %25, ptr noundef %26, i32 noundef 0, i32 noundef %27, i32 noundef 0)
  %29 = load ptr, ptr %8, align 8
  %30 = load ptr, ptr %9, align 8
  %31 = load i32, ptr %10, align 4
  %32 = load ptr, ptr %7, align 8
  call void @dissect_mode_byte(ptr noundef %29, ptr noundef %30, i32 noundef %31, ptr noundef %32)
  call void @llvm.lifetime.start.p0(i64 4, ptr %14) #11
  %33 = load ptr, ptr %9, align 8
  %34 = load i32, ptr %10, align 4
  %35 = call zeroext i8 @tvb_get_uint8(ptr noundef %33, i32 noundef %34)
  %36 = zext i8 %35 to i32
  store i32 %36, ptr %14, align 4
  %37 = load i8, ptr %11, align 1, !range !13, !noundef !14
  %38 = trunc i8 %37 to i1
  br i1 %38, label %39, label %60

39:                                               ; preds = %6
  call void @llvm.lifetime.start.p0(i64 2, ptr %15) #11
  %40 = load ptr, ptr %12, align 8
  %41 = call zeroext i16 @compute_crc_s3_pid(ptr noundef %40)
  %42 = load i32, ptr %14, align 4
  %43 = and i32 %42, 224
  %44 = trunc i32 %43 to i8
  %45 = load ptr, ptr %9, align 8
  %46 = load i32, ptr %10, align 4
  %47 = call ptr @tvb_get_ptr(ptr noundef %45, i32 noundef 0, i32 noundef %46)
  %48 = load i32, ptr %10, align 4
  %49 = call zeroext i16 @compute_crc_s3_base_data(i16 noundef zeroext %41, i8 noundef zeroext %44, ptr noundef %47, i32 noundef %48)
  store i16 %49, ptr %15, align 2
  %50 = load ptr, ptr %8, align 8
  %51 = load ptr, ptr %9, align 8
  %52 = load i32, ptr %10, align 4
  %53 = add i32 %52, 1
  %54 = load i32, ptr @hf_cipsafety_crc_s3, align 4
  %55 = load i32, ptr @hf_cipsafety_crc_s3_status, align 4
  %56 = load ptr, ptr %7, align 8
  %57 = load i16, ptr %15, align 2
  %58 = zext i16 %57 to i32
  %59 = call ptr @proto_tree_add_checksum(ptr noundef %50, ptr noundef %51, i32 noundef %53, i32 noundef %54, i32 noundef %55, ptr noundef @ei_cipsafety_crc_s3, ptr noundef %56, i32 noundef %58, i32 noundef -2147483648, i32 noundef 1)
  call void @llvm.lifetime.end.p0(i64 2, ptr %15) #11
  br label %69

60:                                               ; preds = %6
  %61 = load ptr, ptr %8, align 8
  %62 = load ptr, ptr %9, align 8
  %63 = load i32, ptr %10, align 4
  %64 = add i32 %63, 1
  %65 = load i32, ptr @hf_cipsafety_crc_s3, align 4
  %66 = load i32, ptr @hf_cipsafety_crc_s3_status, align 4
  %67 = load ptr, ptr %7, align 8
  %68 = call ptr @proto_tree_add_checksum(ptr noundef %61, ptr noundef %62, i32 noundef %64, i32 noundef %65, i32 noundef %66, ptr noundef @ei_cipsafety_crc_s3, ptr noundef %67, i32 noundef 0, i32 noundef -2147483648, i32 noundef 0)
  br label %69

69:                                               ; preds = %60, %39
  call void @llvm.lifetime.start.p0(i64 8, ptr %16) #11
  %70 = load ptr, ptr %8, align 8
  %71 = load i32, ptr @hf_cipsafety_complement_data, align 4
  %72 = load ptr, ptr %9, align 8
  %73 = load i32, ptr %10, align 4
  %74 = add i32 %73, 3
  %75 = load i32, ptr %10, align 4
  %76 = call ptr @proto_tree_add_item(ptr noundef %70, i32 noundef %71, ptr noundef %72, i32 noundef %74, i32 noundef %75, i32 noundef 0)
  store ptr %76, ptr %16, align 8
  %77 = load ptr, ptr %9, align 8
  %78 = load i32, ptr %10, align 4
  %79 = add i32 %78, 3
  %80 = load i32, ptr %10, align 4
  %81 = call zeroext i1 @verify_compliment_data(ptr noundef %77, i32 noundef 0, i32 noundef %79, i32 noundef %80)
  br i1 %81, label %86, label %82

82:                                               ; preds = %69
  %83 = load ptr, ptr %7, align 8
  %84 = load ptr, ptr %16, align 8
  %85 = call ptr @expert_add_info(ptr noundef %83, ptr noundef %84, ptr noundef @ei_cipsafety_not_complement_data)
  br label %86

86:                                               ; preds = %82, %69
  %87 = load i8, ptr %11, align 1, !range !13, !noundef !14
  %88 = trunc i8 %87 to i1
  br i1 %88, label %89, label %114

89:                                               ; preds = %86
  call void @llvm.lifetime.start.p0(i64 2, ptr %17) #11
  %90 = load ptr, ptr %12, align 8
  %91 = call zeroext i16 @compute_crc_s3_pid(ptr noundef %90)
  %92 = load i32, ptr %14, align 4
  %93 = xor i32 %92, 255
  %94 = and i32 %93, 224
  %95 = trunc i32 %94 to i8
  %96 = load ptr, ptr %9, align 8
  %97 = load i32, ptr %10, align 4
  %98 = add i32 %97, 3
  %99 = load i32, ptr %10, align 4
  %100 = call ptr @tvb_get_ptr(ptr noundef %96, i32 noundef %98, i32 noundef %99)
  %101 = load i32, ptr %10, align 4
  %102 = call zeroext i16 @compute_crc_s3_base_data(i16 noundef zeroext %91, i8 noundef zeroext %95, ptr noundef %100, i32 noundef %101)
  store i16 %102, ptr %17, align 2
  %103 = load ptr, ptr %8, align 8
  %104 = load ptr, ptr %9, align 8
  %105 = load i32, ptr %10, align 4
  %106 = mul i32 %105, 2
  %107 = add i32 %106, 3
  %108 = load i32, ptr @hf_cipsafety_complement_crc_s3, align 4
  %109 = load i32, ptr @hf_cipsafety_complement_crc_s3_status, align 4
  %110 = load ptr, ptr %7, align 8
  %111 = load i16, ptr %17, align 2
  %112 = zext i16 %111 to i32
  %113 = call ptr @proto_tree_add_checksum(ptr noundef %103, ptr noundef %104, i32 noundef %107, i32 noundef %108, i32 noundef %109, ptr noundef @ei_cipsafety_complement_crc_s3, ptr noundef %110, i32 noundef %112, i32 noundef -2147483648, i32 noundef 1)
  call void @llvm.lifetime.end.p0(i64 2, ptr %17) #11
  br label %124

114:                                              ; preds = %86
  %115 = load ptr, ptr %8, align 8
  %116 = load ptr, ptr %9, align 8
  %117 = load i32, ptr %10, align 4
  %118 = mul i32 %117, 2
  %119 = add i32 %118, 3
  %120 = load i32, ptr @hf_cipsafety_complement_crc_s3, align 4
  %121 = load i32, ptr @hf_cipsafety_complement_crc_s3_status, align 4
  %122 = load ptr, ptr %7, align 8
  %123 = call ptr @proto_tree_add_checksum(ptr noundef %115, ptr noundef %116, i32 noundef %119, i32 noundef %120, i32 noundef %121, ptr noundef @ei_cipsafety_complement_crc_s3, ptr noundef %122, i32 noundef 0, i32 noundef -2147483648, i32 noundef 0)
  br label %124

124:                                              ; preds = %114, %89
  call void @llvm.lifetime.end.p0(i64 8, ptr %16) #11
  call void @llvm.lifetime.end.p0(i64 4, ptr %14) #11
  call void @llvm.lifetime.end.p0(i64 8, ptr %13) #11
  ret void
}