; Function Attrs: null_pointer_is_valid sspstrong uwtable
define internal fastcc void @dissect_base_format_3_to_250_byte_data(ptr noundef %0, ptr noundef %1, ptr noundef %2, i32 noundef range(i32 -4, 1073741820) %3, i1 noundef zeroext %4, ptr noundef readonly captures(none) %5) unnamed_addr #2 {
  %7 = alloca i8, align 1
  %8 = alloca [8 x i8], align 2
  %9 = alloca i8, align 1
  %10 = alloca [8 x i8], align 2
  %11 = load i32, ptr @hf_cip_safety_message_encoding, align 4
  %12 = tail call ptr @proto_tree_add_uint(ptr noundef %1, i32 noundef %11, ptr noundef %2, i32 noundef 0, i32 noundef 0, i32 noundef 2)
  %.not.i = icmp eq ptr %12, null
  br i1 %.not.i, label %proto_item_set_generated.exit, label %13

13:                                               ; preds = %6
  %14 = getelementptr inbounds nuw i8, ptr %12, i64 40
  %15 = load ptr, ptr %14, align 8
  %.not5.i = icmp eq ptr %15, null
  br i1 %.not5.i, label %proto_item_set_generated.exit, label %16

16:                                               ; preds = %13
  %17 = getelementptr inbounds nuw i8, ptr %15, i64 28
  %18 = load i32, ptr %17, align 4
  %19 = or i32 %18, 2
  store i32 %19, ptr %17, align 4
  br label %proto_item_set_generated.exit

proto_item_set_generated.exit:                    ; preds = %6, %13, %16
  %20 = load i32, ptr @hf_cipsafety_data, align 4
  %21 = tail call ptr @proto_tree_add_item(ptr noundef %1, i32 noundef %20, ptr noundef %2, i32 noundef 0, i32 noundef %3, i32 noundef 0)
  tail call fastcc void @dissect_mode_byte(ptr noundef %1, ptr noundef %2, i32 noundef %3, ptr noundef %0)
  %22 = tail call zeroext i8 @tvb_get_uint8(ptr noundef %2, i32 noundef %3)
  br i1 %4, label %23, label %41

23:                                               ; preds = %proto_item_set_generated.exit
  call void @llvm.lifetime.start.p0(i64 8, ptr nonnull %10) #7
  %24 = getelementptr inbounds nuw i8, ptr %5, i64 2
  %25 = load i16, ptr %24, align 1
  store i16 %25, ptr %10, align 2
  %26 = getelementptr inbounds nuw i8, ptr %10, i64 2
  %27 = getelementptr inbounds nuw i8, ptr %5, i64 4
  %28 = load i32, ptr %27, align 1
  store i32 %28, ptr %26, align 2
  %29 = getelementptr inbounds nuw i8, ptr %10, i64 6
  %30 = load i16, ptr %5, align 1
  store i16 %30, ptr %29, align 2
  %31 = call zeroext i16 @crc16_0x080F_seed(ptr noundef nonnull %10, i32 noundef 8, i16 noundef zeroext 0)
  call void @llvm.lifetime.end.p0(i64 8, ptr nonnull %10) #7
  %32 = and i8 %22, -32
  %33 = call ptr @tvb_get_ptr(ptr noundef %2, i32 noundef 0, i32 noundef %3)
  call void @llvm.lifetime.start.p0(i64 1, ptr nonnull %9)
  store i8 %32, ptr %9, align 1
  %34 = call zeroext i16 @crc16_0x080F_seed(ptr noundef nonnull %9, i32 noundef 1, i16 noundef zeroext %31)
  %35 = call zeroext i16 @crc16_0x080F_seed(ptr noundef %33, i32 noundef range(i32 -4, 1073741820) %3, i16 noundef zeroext %34)
  call void @llvm.lifetime.end.p0(i64 1, ptr nonnull %9)
  %36 = add nsw i32 %3, 1
  %37 = load i32, ptr @hf_cipsafety_crc_s3, align 4
  %38 = load i32, ptr @hf_cipsafety_crc_s3_status, align 4
  %39 = zext i16 %35 to i32
  %40 = call ptr @proto_tree_add_checksum(ptr noundef %1, ptr noundef %2, i32 noundef %36, i32 noundef %37, i32 noundef %38, ptr noundef nonnull @ei_cipsafety_crc_s3, ptr noundef %0, i32 noundef %39, i32 noundef -2147483648, i32 noundef 1)
  br label %46

41:                                               ; preds = %proto_item_set_generated.exit
  %42 = add nsw i32 %3, 1
  %43 = load i32, ptr @hf_cipsafety_crc_s3, align 4
  %44 = load i32, ptr @hf_cipsafety_crc_s3_status, align 4
  %45 = tail call ptr @proto_tree_add_checksum(ptr noundef %1, ptr noundef %2, i32 noundef %42, i32 noundef %43, i32 noundef %44, ptr noundef nonnull @ei_cipsafety_crc_s3, ptr noundef %0, i32 noundef 0, i32 noundef -2147483648, i32 noundef 0)
  br label %46

46:                                               ; preds = %41, %23
  %47 = load i32, ptr @hf_cipsafety_complement_data, align 4
  %48 = add nsw i32 %3, 3
  %49 = call ptr @proto_tree_add_item(ptr noundef %1, i32 noundef %47, ptr noundef %2, i32 noundef %48, i32 noundef %3, i32 noundef 0)
  %50 = call ptr @tvb_get_ptr(ptr noundef %2, i32 noundef 0, i32 noundef range(i32 -6, 2147483642) %3)
  %51 = call ptr @tvb_get_ptr(ptr noundef %2, i32 noundef range(i32 -3, 2147483645) %48, i32 noundef range(i32 -6, 2147483642) %3)
  %52 = icmp slt i32 %3, 1
  br i1 %52, label %verify_compliment_data.exit.thread, label %.lr.ph.preheader.i

.lr.ph.preheader.i:                               ; preds = %46
  %wide.trip.count.i = zext nneg i32 %3 to i64
  br label %.lr.ph.i

53:                                               ; preds = %.lr.ph.i
  %indvars.iv.next.i = add nuw nsw i64 %indvars.iv.i, 1
  %exitcond.not.i = icmp eq i64 %indvars.iv.next.i, %wide.trip.count.i
  br i1 %exitcond.not.i, label %verify_compliment_data.exit.thread, label %.lr.ph.i, !llvm.loop !16

.lr.ph.i:                                         ; preds = %53, %.lr.ph.preheader.i
  %indvars.iv.i = phi i64 [ 0, %.lr.ph.preheader.i ], [ %indvars.iv.next.i, %53 ]
  %54 = getelementptr i8, ptr %50, i64 %indvars.iv.i
  %55 = load i8, ptr %54, align 1
  %56 = getelementptr i8, ptr %51, i64 %indvars.iv.i
  %57 = load i8, ptr %56, align 1
  %58 = xor i8 %57, %55
  %.not.i51 = icmp eq i8 %58, -1
  br i1 %.not.i51, label %53, label %verify_compliment_data.exit

verify_compliment_data.exit:                      ; preds = %.lr.ph.i
  %59 = call ptr @expert_add_info(ptr noundef %0, ptr noundef %49, ptr noundef nonnull @ei_cipsafety_not_complement_data)
  br label %verify_compliment_data.exit.thread

verify_compliment_data.exit.thread:               ; preds = %53, %46, %verify_compliment_data.exit
  br i1 %4, label %60, label %80

60:                                               ; preds = %verify_compliment_data.exit.thread
  call void @llvm.lifetime.start.p0(i64 8, ptr nonnull %8) #7
  %61 = getelementptr inbounds nuw i8, ptr %5, i64 2
  %62 = load i16, ptr %61, align 1
  store i16 %62, ptr %8, align 2
  %63 = getelementptr inbounds nuw i8, ptr %8, i64 2
  %64 = getelementptr inbounds nuw i8, ptr %5, i64 4
  %65 = load i32, ptr %64, align 1
  store i32 %65, ptr %63, align 2
  %66 = getelementptr inbounds nuw i8, ptr %8, i64 6
  %67 = load i16, ptr %5, align 1
  store i16 %67, ptr %66, align 2
  %68 = call zeroext i16 @crc16_0x080F_seed(ptr noundef nonnull %8, i32 noundef 8, i16 noundef zeroext 0)
  call void @llvm.lifetime.end.p0(i64 8, ptr nonnull %8) #7
  %69 = and i8 %22, -32
  %70 = xor i8 %69, -32
  %71 = call ptr @tvb_get_ptr(ptr noundef %2, i32 noundef %48, i32 noundef %3)
  call void @llvm.lifetime.start.p0(i64 1, ptr nonnull %7)
  store i8 %70, ptr %7, align 1
  %72 = call zeroext i16 @crc16_0x080F_seed(ptr noundef nonnull %7, i32 noundef 1, i16 noundef zeroext %68)
  %73 = call zeroext i16 @crc16_0x080F_seed(ptr noundef %71, i32 noundef range(i32 -4, 1073741820) %3, i16 noundef zeroext %72)
  call void @llvm.lifetime.end.p0(i64 1, ptr nonnull %7)
  %74 = shl nsw i32 %3, 1
  %75 = add nsw i32 %74, 3
  %76 = load i32, ptr @hf_cipsafety_complement_crc_s3, align 4
  %77 = load i32, ptr @hf_cipsafety_complement_crc_s3_status, align 4
  %78 = zext i16 %73 to i32
  %79 = call ptr @proto_tree_add_checksum(ptr noundef %1, ptr noundef %2, i32 noundef %75, i32 noundef %76, i32 noundef %77, ptr noundef nonnull @ei_cipsafety_complement_crc_s3, ptr noundef %0, i32 noundef %78, i32 noundef -2147483648, i32 noundef 1)
  br label %86

80:                                               ; preds = %verify_compliment_data.exit.thread
  %81 = shl nsw i32 %3, 1
  %82 = add nsw i32 %81, 3
  %83 = load i32, ptr @hf_cipsafety_complement_crc_s3, align 4
  %84 = load i32, ptr @hf_cipsafety_complement_crc_s3_status, align 4
  %85 = call ptr @proto_tree_add_checksum(ptr noundef %1, ptr noundef %2, i32 noundef %82, i32 noundef %83, i32 noundef %84, ptr noundef nonnull @ei_cipsafety_complement_crc_s3, ptr noundef %0, i32 noundef 0, i32 noundef -2147483648, i32 noundef 0)
  br label %86

86:                                               ; preds = %80, %60
  ret void
}